target datalayout = "e-m:e-p270:32:32-p271:32:32-p272:64:64-i64:64-i128:128-f80:128-n8:16:32:64-S128"
target triple = "x86_64-pc-linux-gnu"

%struct.SDL_Surface = type { i32, i32, i32, i32, i32, ptr, i32, ptr, i32, i32, ptr, i32, ptr, i32, ptr, i32, %struct.SDL_Rect, %struct.SDL_BlitMap }
%struct.SDL_Rect = type { i32, i32, i32, i32 }
%struct.SDL_BlitMap = type { i32, ptr, ptr, %struct.SDL_BlitInfo, i32, i32 }
%struct.SDL_BlitInfo = type { ptr, ptr, i32, i32, i32, i32, ptr, ptr, i32, i32, i32, i32, ptr, ptr, ptr, ptr, ptr, ptr, i32, i32, i8, i8, i8, i8 }
%struct.SDL_PixelFormatDetails = type { i32, i8, i8, [2 x i8], i32, i32, i32, i32, i8, i8, i8, i8, i8, i8, i8, i8 }

@.str = private unnamed_addr constant [26 x i8] c"Parameter '%s' is invalid\00", align 1
@.str.1 = private unnamed_addr constant [21 x i8] c"SDL_BlendLine(): dst\00", align 1
@.str.2 = private unnamed_addr constant [44 x i8] c"SDL_BlendLine(): Unsupported surface format\00", align 1

; Function Attrs: nounwind uwtable
define internal ptr @SDL_CalculateBlendLineFunc(ptr noundef %0) #0 {
  %2 = alloca ptr, align 8
  %3 = alloca ptr, align 8
  store ptr %0, ptr %3, align 8
  %4 = load ptr, ptr %3, align 8
  %5 = getelementptr inbounds nuw %struct.SDL_PixelFormatDetails, ptr %4, i32 0, i32 2
  %6 = load i8, ptr %5, align 1
  %7 = zext i8 %6 to i32
  switch i32 %7, label %40 [
    i32 2, label %8
    i32 4, label %21
  ]

8:                                                ; preds = %1
  %9 = load ptr, ptr %3, align 8
  %10 = getelementptr inbounds nuw %struct.SDL_PixelFormatDetails, ptr %9, i32 0, i32 4
  %11 = load i32, ptr %10, align 4
  %12 = icmp eq i32 %11, 31744
  br i1 %12, label %13, label %14

13:                                               ; preds = %8
  store ptr @SDL_BlendLine_RGB555, ptr %2, align 8
  br label %41

14:                                               ; preds = %8
  %15 = load ptr, ptr %3, align 8
  %16 = getelementptr inbounds nuw %struct.SDL_PixelFormatDetails, ptr %15, i32 0, i32 4
  %17 = load i32, ptr %16, align 4
  %18 = icmp eq i32 %17, 63488
  br i1 %18, label %19, label %20

19:                                               ; preds = %14
  store ptr @SDL_BlendLine_RGB565, ptr %2, align 8
  br label %41

20:                                               ; preds = %14
  store ptr @SDL_BlendLine_RGB2, ptr %2, align 8
  br label %41

21:                                               ; preds = %1
  %22 = load ptr, ptr %3, align 8
  %23 = getelementptr inbounds nuw %struct.SDL_PixelFormatDetails, ptr %22, i32 0, i32 4
  %24 = load i32, ptr %23, align 4
  %25 = icmp eq i32 %24, 16711680
  br i1 %25, label %26, label %33

26:                                               ; preds = %21
  %27 = load ptr, ptr %3, align 8
  %28 = getelementptr inbounds nuw %struct.SDL_PixelFormatDetails, ptr %27, i32 0, i32 7
  %29 = load i32, ptr %28, align 4
  %30 = icmp ne i32 %29, 0
  br i1 %30, label %31, label %32

31:                                               ; preds = %26
  store ptr @SDL_BlendLine_ARGB8888, ptr %2, align 8
  br label %41

32:                                               ; preds = %26
  store ptr @SDL_BlendLine_XRGB8888, ptr %2, align 8
  br label %41

33:                                               ; preds = %21
  %34 = load ptr, ptr %3, align 8
  %35 = getelementptr inbounds nuw %struct.SDL_PixelFormatDetails, ptr %34, i32 0, i32 7
  %36 = load i32, ptr %35, align 4
  %37 = icmp ne i32 %36, 0
  br i1 %37, label %38, label %39

38:                                               ; preds = %33
  store ptr @SDL_BlendLine_RGBA4, ptr %2, align 8
  br label %41

39:                                               ; preds = %33
  store ptr @SDL_BlendLine_RGB4, ptr %2, align 8
  br label %41

40:                                               ; preds = %1
  store ptr null, ptr %2, align 8
  br label %41

41:                                               ; preds = %40, %39, %38, %32, %31, %20, %19, %13
  %42 = load ptr, ptr %2, align 8
  ret ptr %42
}

; Function Attrs: nounwind uwtable
define hidden zeroext i1 @SDL_BlendLine(ptr noundef %0, i32 noundef %1, i32 noundef %2, i32 noundef %3, i32 noundef %4, i32 noundef %5, i8 noundef zeroext %6, i8 noundef zeroext %7, i8 noundef zeroext %8, i8 noundef zeroext %9) #0 {
  %11 = alloca i1, align 1
  %12 = alloca ptr, align 8
  %13 = alloca i32, align 4
  %14 = alloca i32, align 4
  %15 = alloca i32, align 4
  %16 = alloca i32, align 4
  %17 = alloca i32, align 4
  %18 = alloca i8, align 1
  %19 = alloca i8, align 1
  %20 = alloca i8, align 1
  %21 = alloca i8, align 1
  %22 = alloca ptr, align 8
  %23 = alloca i32, align 4
  store ptr %0, ptr %12, align 8
  store i32 %1, ptr %13, align 4
  store i32 %2, ptr %14, align 4
  store i32 %3, ptr %15, align 4
  store i32 %4, ptr %16, align 4
  store i32 %5, ptr %17, align 4
  store i8 %6, ptr %18, align 1
  store i8 %7, ptr %19, align 1
  store i8 %8, ptr %20, align 1
  store i8 %9, ptr %21, align 1
  call void @llvm.lifetime.start.p0(i64 8, ptr %22) #3
  %24 = load ptr, ptr %12, align 8
  %25 = call zeroext i1 @SDL_SurfaceValid(ptr noundef %24)
  br i1 %25, label %28, label %26

26:                                               ; preds = %10
  %27 = call zeroext i1 (ptr, ...) @SDL_SetError_REAL(ptr noundef @.str, ptr noundef @.str.1)
  store i1 %27, ptr %11, align 1
  store i32 1, ptr %23, align 4
  br label %54

28:                                               ; preds = %10
  %29 = load ptr, ptr %12, align 8
  %30 = getelementptr inbounds nuw %struct.SDL_Surface, ptr %29, i32 0, i32 10
  %31 = load ptr, ptr %30, align 8
  %32 = call ptr @SDL_CalculateBlendLineFunc(ptr noundef %31)
  store ptr %32, ptr %22, align 8
  %33 = load ptr, ptr %22, align 8
  %34 = icmp ne ptr %33, null
  br i1 %34, label %37, label %35

35:                                               ; preds = %28
  %36 = call zeroext i1 (ptr, ...) @SDL_SetError_REAL(ptr noundef @.str.2)
  store i1 %36, ptr %11, align 1
  store i32 1, ptr %23, align 4
  br label %54

37:                                               ; preds = %28
  %38 = load ptr, ptr %12, align 8
  %39 = getelementptr inbounds nuw %struct.SDL_Surface, ptr %38, i32 0, i32 16
  %40 = call zeroext i1 @SDL_GetRectAndLineIntersection_REAL(ptr noundef %39, ptr noundef %13, ptr noundef %14, ptr noundef %15, ptr noundef %16)
  br i1 %40, label %42, label %41

41:                                               ; preds = %37
  store i1 true, ptr %11, align 1
  store i32 1, ptr %23, align 4
  br label %54

42:                                               ; preds = %37
  %43 = load ptr, ptr %22, align 8
  %44 = load ptr, ptr %12, align 8
  %45 = load i32, ptr %13, align 4
  %46 = load i32, ptr %14, align 4
  %47 = load i32, ptr %15, align 4
  %48 = load i32, ptr %16, align 4
  %49 = load i32, ptr %17, align 4
  %50 = load i8, ptr %18, align 1
  %51 = load i8, ptr %19, align 1
  %52 = load i8, ptr %20, align 1
  %53 = load i8, ptr %21, align 1
  call void %43(ptr noundef %44, i32 noundef %45, i32 noundef %46, i32 noundef %47, i32 noundef %48, i32 noundef %49, i8 noundef zeroext %50, i8 noundef zeroext %51, i8 noundef zeroext %52, i8 noundef zeroext %53, i1 noundef zeroext true)
  store i1 true, ptr %11, align 1
  store i32 1, ptr %23, align 4
  br label %54

54:                                               ; preds = %42, %41, %35, %26
  call void @llvm.lifetime.end.p0(i64 8, ptr %22) #3
  %55 = load i1, ptr %11, align 1
  ret i1 %55
}