; Function Attrs: nounwind uwtable
define hidden zeroext i1 @SDL_BlendLine(ptr noundef %0, i32 noundef %1, i32 noundef %2, i32 noundef %3, i32 noundef %4, i32 noundef %5, i8 noundef zeroext %6, i8 noundef zeroext %7, i8 noundef zeroext %8, i8 noundef zeroext %9) local_unnamed_addr #0 {
  %11 = alloca i32, align 4
  %12 = alloca i32, align 4
  %13 = alloca i32, align 4
  %14 = alloca i32, align 4
  store i32 %1, ptr %11, align 4
  store i32 %2, ptr %12, align 4
  store i32 %3, ptr %13, align 4
  store i32 %4, ptr %14, align 4
  %15 = tail call zeroext i1 @SDL_SurfaceValid(ptr noundef %0) #5
  br i1 %15, label %18, label %16

16:                                               ; preds = %10
  %17 = tail call zeroext i1 (ptr, ...) @SDL_SetError_REAL(ptr noundef nonnull @.str, ptr noundef nonnull @.str.1) #5
  br label %42

18:                                               ; preds = %10
  %19 = getelementptr inbounds nuw i8, ptr %0, i64 56
  %20 = load ptr, ptr %19, align 8
  %21 = getelementptr inbounds nuw i8, ptr %20, i64 5
  %22 = load i8, ptr %21, align 1
  switch i8 %22, label %SDL_CalculateBlendLineFunc.exit [
    i8 2, label %23
    i8 4, label %26
  ]

23:                                               ; preds = %18
  %24 = getelementptr inbounds nuw i8, ptr %20, i64 8
  %25 = load i32, ptr %24, align 4
  %switch.selectcmp.i = icmp eq i32 %25, 63488
  %switch.select.i = select i1 %switch.selectcmp.i, ptr @SDL_BlendLine_RGB565, ptr @SDL_BlendLine_RGB2
  %switch.selectcmp9.i = icmp eq i32 %25, 31744
  %spec.select = select i1 %switch.selectcmp9.i, ptr @SDL_BlendLine_RGB555, ptr %switch.select.i
  br label %select.unfold

26:                                               ; preds = %18
  %27 = getelementptr inbounds nuw i8, ptr %20, i64 8
  %28 = load i32, ptr %27, align 4
  %29 = icmp eq i32 %28, 16711680
  %30 = getelementptr inbounds nuw i8, ptr %20, i64 20
  %31 = load i32, ptr %30, align 4
  %.not8.i = icmp eq i32 %31, 0
  br i1 %29, label %32, label %33

32:                                               ; preds = %26
  %SDL_BlendLine_XRGB8888.SDL_BlendLine_ARGB8888.i = select i1 %.not8.i, ptr @SDL_BlendLine_XRGB8888, ptr @SDL_BlendLine_ARGB8888
  br label %select.unfold

33:                                               ; preds = %26
  %SDL_BlendLine_RGB4.SDL_BlendLine_RGBA4.i = select i1 %.not8.i, ptr @SDL_BlendLine_RGB4, ptr @SDL_BlendLine_RGBA4
  br label %select.unfold

SDL_CalculateBlendLineFunc.exit:                  ; preds = %18
  %34 = tail call zeroext i1 (ptr, ...) @SDL_SetError_REAL(ptr noundef nonnull @.str.2) #5
  br label %42

select.unfold:                                    ; preds = %23, %32, %33
  %.0.i.ph = phi ptr [ %SDL_BlendLine_RGB4.SDL_BlendLine_RGBA4.i, %33 ], [ %SDL_BlendLine_XRGB8888.SDL_BlendLine_ARGB8888.i, %32 ], [ %spec.select, %23 ]
  %35 = getelementptr inbounds nuw i8, ptr %0, i64 100
  %36 = call zeroext i1 @SDL_GetRectAndLineIntersection_REAL(ptr noundef nonnull %35, ptr noundef nonnull %11, ptr noundef nonnull %12, ptr noundef nonnull %13, ptr noundef nonnull %14) #5
  br i1 %36, label %37, label %42

37:                                               ; preds = %select.unfold
  %38 = load i32, ptr %11, align 4
  %39 = load i32, ptr %12, align 4
  %40 = load i32, ptr %13, align 4
  %41 = load i32, ptr %14, align 4
  call void %.0.i.ph(ptr noundef nonnull %0, i32 noundef %38, i32 noundef %39, i32 noundef %40, i32 noundef %41, i32 noundef %5, i8 noundef zeroext %6, i8 noundef zeroext %7, i8 noundef zeroext %8, i8 noundef zeroext %9, i1 noundef zeroext true) #5
  br label %42

42:                                               ; preds = %select.unfold, %37, %SDL_CalculateBlendLineFunc.exit, %16
  %.0 = phi i1 [ true, %37 ], [ %34, %SDL_CalculateBlendLineFunc.exit ], [ %17, %16 ], [ true, %select.unfold ]
  ret i1 %.0
}